target datalayout = "e-m:e-p270:32:32-p271:32:32-p272:64:64-i64:64-i128:128-f80:128-n8:16:32:64-S128"
target triple = "x86_64-pc-linux-gnu"

%struct.SRTContext = type { ptr, ptr, %struct.AVBPrint, [64 x i8], i32, i32 }
%struct.AVBPrint = type { ptr, i32, i32, i32, [1 x i8], [1000 x i8] }
%struct.ASSStyle = type { ptr, ptr, i32, i32, i32, i32, i32, i32, i32, i32, i32, float, float, float, float, i32, float, float, i32, i32, i32, i32, i32, i32 }

@.str.7 = private unnamed_addr constant [6 x i8] c"Arial\00", align 1
@.str.8 = private unnamed_addr constant [6 x i8] c"<font\00", align 1
@.str.9 = private unnamed_addr constant [11 x i8] c" face=\22%s\22\00", align 1
@.str.10 = private unnamed_addr constant [11 x i8] c" size=\22%d\22\00", align 1
@.str.11 = private unnamed_addr constant [15 x i8] c" color=\22#%06x\22\00", align 1
@.str.12 = private unnamed_addr constant [2 x i8] c">\00", align 1
@.str.13 = private unnamed_addr constant [4 x i8] c"<b>\00", align 1
@.str.14 = private unnamed_addr constant [4 x i8] c"<i>\00", align 1
@.str.15 = private unnamed_addr constant [4 x i8] c"<u>\00", align 1
@.str.16 = private unnamed_addr constant [8 x i8] c"{\\an%d}\00", align 1

; Function Attrs: nounwind uwtable
define internal i32 @srt_stack_push(ptr noundef %0, i8 noundef signext %1) #1 {
  %3 = alloca i32, align 4
  %4 = alloca ptr, align 8
  %5 = alloca i8, align 1
  store ptr %0, ptr %4, align 8, !tbaa !29
  store i8 %1, ptr %5, align 1, !tbaa !70
  %6 = load ptr, ptr %4, align 8, !tbaa !29
  %7 = getelementptr inbounds nuw %struct.SRTContext, ptr %6, i32 0, i32 4
  %8 = load i32, ptr %7, align 8, !tbaa !71
  %9 = icmp sge i32 %8, 64
  br i1 %9, label %10, label %11

10:                                               ; preds = %2
  store i32 -1, ptr %3, align 4
  br label %21

11:                                               ; preds = %2
  %12 = load i8, ptr %5, align 1, !tbaa !70
  %13 = load ptr, ptr %4, align 8, !tbaa !29
  %14 = getelementptr inbounds nuw %struct.SRTContext, ptr %13, i32 0, i32 3
  %15 = load ptr, ptr %4, align 8, !tbaa !29
  %16 = getelementptr inbounds nuw %struct.SRTContext, ptr %15, i32 0, i32 4
  %17 = load i32, ptr %16, align 8, !tbaa !71
  %18 = add nsw i32 %17, 1
  store i32 %18, ptr %16, align 8, !tbaa !71
  %19 = sext i32 %17 to i64
  %20 = getelementptr inbounds [64 x i8], ptr %14, i64 0, i64 %19
  store i8 %12, ptr %20, align 1, !tbaa !70
  store i32 0, ptr %3, align 4
  br label %21

21:                                               ; preds = %11, %10
  %22 = load i32, ptr %3, align 4
  ret i32 %22
}

; Function Attrs: nounwind uwtable
define internal void @srt_style_apply(ptr noundef %0, ptr noundef %1) #1 {
  %3 = alloca ptr, align 8
  %4 = alloca ptr, align 8
  %5 = alloca ptr, align 8
  %6 = alloca i32, align 4
  store ptr %0, ptr %3, align 8, !tbaa !29
  store ptr %1, ptr %4, align 8, !tbaa !36
  call void @llvm.lifetime.start.p0(i64 8, ptr %5) #7
  %7 = load ptr, ptr %3, align 8, !tbaa !29
  %8 = getelementptr inbounds nuw %struct.SRTContext, ptr %7, i32 0, i32 1
  %9 = load ptr, ptr %8, align 8, !tbaa !35
  %10 = load ptr, ptr %4, align 8, !tbaa !36
  %11 = call ptr @ff_ass_style_get(ptr noundef %9, ptr noundef %10)
  store ptr %11, ptr %5, align 8, !tbaa !29
  %12 = load ptr, ptr %5, align 8, !tbaa !29
  %13 = icmp ne ptr %12, null
  br i1 %13, label %14, label %123

14:                                               ; preds = %2
  call void @llvm.lifetime.start.p0(i64 4, ptr %6) #7
  %15 = load ptr, ptr %5, align 8, !tbaa !29
  %16 = getelementptr inbounds nuw %struct.ASSStyle, ptr %15, i32 0, i32 3
  %17 = load i32, ptr %16, align 4, !tbaa !58
  %18 = and i32 %17, 16777215
  store i32 %18, ptr %6, align 4, !tbaa !37
  %19 = load ptr, ptr %5, align 8, !tbaa !29
  %20 = getelementptr inbounds nuw %struct.ASSStyle, ptr %19, i32 0, i32 1
  %21 = load ptr, ptr %20, align 8, !tbaa !60
  %22 = icmp ne ptr %21, null
  br i1 %22, label %23, label %29

23:                                               ; preds = %14
  %24 = load ptr, ptr %5, align 8, !tbaa !29
  %25 = getelementptr inbounds nuw %struct.ASSStyle, ptr %24, i32 0, i32 1
  %26 = load ptr, ptr %25, align 8, !tbaa !60
  %27 = call i32 @strcmp(ptr noundef %26, ptr noundef @.str.7) #8
  %28 = icmp ne i32 %27, 0
  br i1 %28, label %37, label %29

29:                                               ; preds = %23, %14
  %30 = load ptr, ptr %5, align 8, !tbaa !29
  %31 = getelementptr inbounds nuw %struct.ASSStyle, ptr %30, i32 0, i32 2
  %32 = load i32, ptr %31, align 8, !tbaa !61
  %33 = icmp ne i32 %32, 16
  br i1 %33, label %37, label %34

34:                                               ; preds = %29
  %35 = load i32, ptr %6, align 4, !tbaa !37
  %36 = icmp ne i32 %35, 16777215
  br i1 %36, label %37, label %83

37:                                               ; preds = %34, %29, %23
  %38 = load ptr, ptr %3, align 8, !tbaa !29
  call void (ptr, ptr, ...) @srt_print(ptr noundef %38, ptr noundef @.str.8)
  %39 = load ptr, ptr %5, align 8, !tbaa !29
  %40 = getelementptr inbounds nuw %struct.ASSStyle, ptr %39, i32 0, i32 1
  %41 = load ptr, ptr %40, align 8, !tbaa !60
  %42 = icmp ne ptr %41, null
  br i1 %42, label %43, label %54

43:                                               ; preds = %37
  %44 = load ptr, ptr %5, align 8, !tbaa !29
  %45 = getelementptr inbounds nuw %struct.ASSStyle, ptr %44, i32 0, i32 1
  %46 = load ptr, ptr %45, align 8, !tbaa !60
  %47 = call i32 @strcmp(ptr noundef %46, ptr noundef @.str.7) #8
  %48 = icmp ne i32 %47, 0
  br i1 %48, label %49, label %54

49:                                               ; preds = %43
  %50 = load ptr, ptr %3, align 8, !tbaa !29
  %51 = load ptr, ptr %5, align 8, !tbaa !29
  %52 = getelementptr inbounds nuw %struct.ASSStyle, ptr %51, i32 0, i32 1
  %53 = load ptr, ptr %52, align 8, !tbaa !60
  call void (ptr, ptr, ...) @srt_print(ptr noundef %50, ptr noundef @.str.9, ptr noundef %53)
  br label %54

54:                                               ; preds = %49, %43, %37
  %55 = load ptr, ptr %5, align 8, !tbaa !29
  %56 = getelementptr inbounds nuw %struct.ASSStyle, ptr %55, i32 0, i32 2
  %57 = load i32, ptr %56, align 8, !tbaa !61
  %58 = icmp ne i32 %57, 16
  br i1 %58, label %59, label %64

59:                                               ; preds = %54
  %60 = load ptr, ptr %3, align 8, !tbaa !29
  %61 = load ptr, ptr %5, align 8, !tbaa !29
  %62 = getelementptr inbounds nuw %struct.ASSStyle, ptr %61, i32 0, i32 2
  %63 = load i32, ptr %62, align 8, !tbaa !61
  call void (ptr, ptr, ...) @srt_print(ptr noundef %60, ptr noundef @.str.10, i32 noundef %63)
  br label %64

64:                                               ; preds = %59, %54
  %65 = load i32, ptr %6, align 4, !tbaa !37
  %66 = icmp ne i32 %65, 16777215
  br i1 %66, label %67, label %79

67:                                               ; preds = %64
  %68 = load ptr, ptr %3, align 8, !tbaa !29
  %69 = load i32, ptr %6, align 4, !tbaa !37
  %70 = and i32 %69, 16711680
  %71 = ashr i32 %70, 16
  %72 = load i32, ptr %6, align 4, !tbaa !37
  %73 = and i32 %72, 65280
  %74 = or i32 %71, %73
  %75 = load i32, ptr %6, align 4, !tbaa !37
  %76 = and i32 %75, 255
  %77 = shl i32 %76, 16
  %78 = or i32 %74, %77
  call void (ptr, ptr, ...) @srt_print(ptr noundef %68, ptr noundef @.str.11, i32 noundef %78)
  br label %79

79:                                               ; preds = %67, %64
  %80 = load ptr, ptr %3, align 8, !tbaa !29
  call void (ptr, ptr, ...) @srt_print(ptr noundef %80, ptr noundef @.str.12)
  %81 = load ptr, ptr %3, align 8, !tbaa !29
  %82 = call i32 @srt_stack_push(ptr noundef %81, i8 noundef signext 102)
  br label %83

83:                                               ; preds = %79, %34
  %84 = load ptr, ptr %5, align 8, !tbaa !29
  %85 = getelementptr inbounds nuw %struct.ASSStyle, ptr %84, i32 0, i32 7
  %86 = load i32, ptr %85, align 4, !tbaa !62
  %87 = icmp ne i32 %86, 0
  br i1 %87, label %88, label %92

88:                                               ; preds = %83
  %89 = load ptr, ptr %3, align 8, !tbaa !29
  call void (ptr, ptr, ...) @srt_print(ptr noundef %89, ptr noundef @.str.13)
  %90 = load ptr, ptr %3, align 8, !tbaa !29
  %91 = call i32 @srt_stack_push(ptr noundef %90, i8 noundef signext 98)
  br label %92

92:                                               ; preds = %88, %83
  %93 = load ptr, ptr %5, align 8, !tbaa !29
  %94 = getelementptr inbounds nuw %struct.ASSStyle, ptr %93, i32 0, i32 8
  %95 = load i32, ptr %94, align 8, !tbaa !63
  %96 = icmp ne i32 %95, 0
  br i1 %96, label %97, label %101

97:                                               ; preds = %92
  %98 = load ptr, ptr %3, align 8, !tbaa !29
  call void (ptr, ptr, ...) @srt_print(ptr noundef %98, ptr noundef @.str.14)
  %99 = load ptr, ptr %3, align 8, !tbaa !29
  %100 = call i32 @srt_stack_push(ptr noundef %99, i8 noundef signext 105)
  br label %101

101:                                              ; preds = %97, %92
  %102 = load ptr, ptr %5, align 8, !tbaa !29
  %103 = getelementptr inbounds nuw %struct.ASSStyle, ptr %102, i32 0, i32 9
  %104 = load i32, ptr %103, align 4, !tbaa !64
  %105 = icmp ne i32 %104, 0
  br i1 %105, label %106, label %110

106:                                              ; preds = %101
  %107 = load ptr, ptr %3, align 8, !tbaa !29
  call void (ptr, ptr, ...) @srt_print(ptr noundef %107, ptr noundef @.str.15)
  %108 = load ptr, ptr %3, align 8, !tbaa !29
  %109 = call i32 @srt_stack_push(ptr noundef %108, i8 noundef signext 117)
  br label %110

110:                                              ; preds = %106, %101
  %111 = load ptr, ptr %5, align 8, !tbaa !29
  %112 = getelementptr inbounds nuw %struct.ASSStyle, ptr %111, i32 0, i32 18
  %113 = load i32, ptr %112, align 8, !tbaa !65
  %114 = icmp ne i32 %113, 2
  br i1 %114, label %115, label %122

115:                                              ; preds = %110
  %116 = load ptr, ptr %3, align 8, !tbaa !29
  %117 = load ptr, ptr %5, align 8, !tbaa !29
  %118 = getelementptr inbounds nuw %struct.ASSStyle, ptr %117, i32 0, i32 18
  %119 = load i32, ptr %118, align 8, !tbaa !65
  call void (ptr, ptr, ...) @srt_print(ptr noundef %116, ptr noundef @.str.16, i32 noundef %119)
  %120 = load ptr, ptr %3, align 8, !tbaa !29
  %121 = getelementptr inbounds nuw %struct.SRTContext, ptr %120, i32 0, i32 5
  store i32 1, ptr %121, align 4, !tbaa !50
  br label %122

122:                                              ; preds = %115, %110
  call void @llvm.lifetime.end.p0(i64 4, ptr %6) #7
  br label %123

123:                                              ; preds = %122, %2
  call void @llvm.lifetime.end.p0(i64 8, ptr %5) #7
  ret void
}