; Function Attrs: nounwind uwtable
define internal fastcc void @srt_style_apply(ptr noundef %0, ptr noundef %1) unnamed_addr #1 {
  %3 = getelementptr inbounds nuw i8, ptr %0, i64 8
  %4 = load ptr, ptr %3, align 8, !tbaa !33
  %5 = tail call ptr @ff_ass_style_get(ptr noundef %4, ptr noundef %1) #8
  %.not = icmp eq ptr %5, null
  br i1 %.not, label %83, label %6

6:                                                ; preds = %2
  %7 = getelementptr inbounds nuw i8, ptr %5, i64 20
  %8 = load i32, ptr %7, align 4, !tbaa !54
  %9 = and i32 %8, 16777215
  %10 = getelementptr inbounds nuw i8, ptr %5, i64 8
  %11 = load ptr, ptr %10, align 8, !tbaa !56
  %.not41 = icmp eq ptr %11, null
  br i1 %.not41, label %14, label %12

12:                                               ; preds = %6
  %13 = tail call i32 @strcmp(ptr noundef nonnull dereferenceable(1) %11, ptr noundef nonnull dereferenceable(6) @.str.7) #9
  %.not42 = icmp eq i32 %13, 0
  br i1 %.not42, label %14, label %19

14:                                               ; preds = %12, %6
  %15 = getelementptr inbounds nuw i8, ptr %5, i64 16
  %16 = load i32, ptr %15, align 8, !tbaa !57
  %17 = icmp ne i32 %16, 16
  %18 = icmp ne i32 %9, 16777215
  %or.cond = select i1 %17, i1 true, i1 %18
  br i1 %or.cond, label %19, label %srt_stack_push.exit

19:                                               ; preds = %14, %12
  tail call void (ptr, ptr, ...) @srt_print(ptr noundef nonnull %0, ptr noundef nonnull @.str.8)
  %20 = load ptr, ptr %10, align 8, !tbaa !56
  %.not43 = icmp eq ptr %20, null
  br i1 %.not43, label %24, label %21

21:                                               ; preds = %19
  %22 = tail call i32 @strcmp(ptr noundef nonnull dereferenceable(1) %20, ptr noundef nonnull dereferenceable(6) @.str.7) #9
  %.not44 = icmp eq i32 %22, 0
  br i1 %.not44, label %24, label %23

23:                                               ; preds = %21
  tail call void (ptr, ptr, ...) @srt_print(ptr noundef nonnull %0, ptr noundef nonnull @.str.9, ptr noundef nonnull %20)
  br label %24

24:                                               ; preds = %23, %21, %19
  %25 = getelementptr inbounds nuw i8, ptr %5, i64 16
  %26 = load i32, ptr %25, align 8, !tbaa !57
  %.not45 = icmp eq i32 %26, 16
  br i1 %.not45, label %28, label %27

27:                                               ; preds = %24
  tail call void (ptr, ptr, ...) @srt_print(ptr noundef nonnull %0, ptr noundef nonnull @.str.10, i32 noundef %26)
  br label %28

28:                                               ; preds = %27, %24
  %.not46 = icmp eq i32 %9, 16777215
  br i1 %.not46, label %37, label %29

29:                                               ; preds = %28
  %30 = lshr i32 %8, 16
  %31 = and i32 %30, 255
  %32 = and i32 %8, 65280
  %33 = or disjoint i32 %31, %32
  %34 = shl i32 %8, 16
  %35 = and i32 %34, 16711680
  %36 = or disjoint i32 %33, %35
  tail call void (ptr, ptr, ...) @srt_print(ptr noundef nonnull %0, ptr noundef nonnull @.str.11, i32 noundef %36)
  br label %37

37:                                               ; preds = %29, %28
  tail call void (ptr, ptr, ...) @srt_print(ptr noundef nonnull %0, ptr noundef nonnull @.str.12)
  %38 = getelementptr inbounds nuw i8, ptr %0, i64 1104
  %39 = load i32, ptr %38, align 8, !tbaa !58
  %40 = icmp sgt i32 %39, 63
  br i1 %40, label %srt_stack_push.exit, label %41

41:                                               ; preds = %37
  %42 = getelementptr inbounds nuw i8, ptr %0, i64 1040
  %43 = add nsw i32 %39, 1
  store i32 %43, ptr %38, align 8, !tbaa !58
  %44 = sext i32 %39 to i64
  %45 = getelementptr inbounds [64 x i8], ptr %42, i64 0, i64 %44
  store i8 102, ptr %45, align 1, !tbaa !59
  br label %srt_stack_push.exit

srt_stack_push.exit:                              ; preds = %41, %37, %14
  %46 = getelementptr inbounds nuw i8, ptr %5, i64 36
  %47 = load i32, ptr %46, align 4, !tbaa !60
  %.not47 = icmp eq i32 %47, 0
  br i1 %.not47, label %srt_stack_push.exit52, label %48

48:                                               ; preds = %srt_stack_push.exit
  tail call void (ptr, ptr, ...) @srt_print(ptr noundef nonnull %0, ptr noundef nonnull @.str.13)
  %49 = getelementptr inbounds nuw i8, ptr %0, i64 1104
  %50 = load i32, ptr %49, align 8, !tbaa !58
  %51 = icmp sgt i32 %50, 63
  br i1 %51, label %srt_stack_push.exit52, label %52

52:                                               ; preds = %48
  %53 = getelementptr inbounds nuw i8, ptr %0, i64 1040
  %54 = add nsw i32 %50, 1
  store i32 %54, ptr %49, align 8, !tbaa !58
  %55 = sext i32 %50 to i64
  %56 = getelementptr inbounds [64 x i8], ptr %53, i64 0, i64 %55
  store i8 98, ptr %56, align 1, !tbaa !59
  br label %srt_stack_push.exit52

srt_stack_push.exit52:                            ; preds = %52, %48, %srt_stack_push.exit
  %57 = getelementptr inbounds nuw i8, ptr %5, i64 40
  %58 = load i32, ptr %57, align 8, !tbaa !61
  %.not48 = icmp eq i32 %58, 0
  br i1 %.not48, label %srt_stack_push.exit54, label %59

59:                                               ; preds = %srt_stack_push.exit52
  tail call void (ptr, ptr, ...) @srt_print(ptr noundef nonnull %0, ptr noundef nonnull @.str.14)
  %60 = getelementptr inbounds nuw i8, ptr %0, i64 1104
  %61 = load i32, ptr %60, align 8, !tbaa !58
  %62 = icmp sgt i32 %61, 63
  br i1 %62, label %srt_stack_push.exit54, label %63

63:                                               ; preds = %59
  %64 = getelementptr inbounds nuw i8, ptr %0, i64 1040
  %65 = add nsw i32 %61, 1
  store i32 %65, ptr %60, align 8, !tbaa !58
  %66 = sext i32 %61 to i64
  %67 = getelementptr inbounds [64 x i8], ptr %64, i64 0, i64 %66
  store i8 105, ptr %67, align 1, !tbaa !59
  br label %srt_stack_push.exit54

srt_stack_push.exit54:                            ; preds = %63, %59, %srt_stack_push.exit52
  %68 = getelementptr inbounds nuw i8, ptr %5, i64 44
  %69 = load i32, ptr %68, align 4, !tbaa !62
  %.not49 = icmp eq i32 %69, 0
  br i1 %.not49, label %srt_stack_push.exit56, label %70

70:                                               ; preds = %srt_stack_push.exit54
  tail call void (ptr, ptr, ...) @srt_print(ptr noundef nonnull %0, ptr noundef nonnull @.str.15)
  %71 = getelementptr inbounds nuw i8, ptr %0, i64 1104
  %72 = load i32, ptr %71, align 8, !tbaa !58
  %73 = icmp sgt i32 %72, 63
  br i1 %73, label %srt_stack_push.exit56, label %74

74:                                               ; preds = %70
  %75 = getelementptr inbounds nuw i8, ptr %0, i64 1040
  %76 = add nsw i32 %72, 1
  store i32 %76, ptr %71, align 8, !tbaa !58
  %77 = sext i32 %72 to i64
  %78 = getelementptr inbounds [64 x i8], ptr %75, i64 0, i64 %77
  store i8 117, ptr %78, align 1, !tbaa !59
  br label %srt_stack_push.exit56

srt_stack_push.exit56:                            ; preds = %74, %70, %srt_stack_push.exit54
  %79 = getelementptr inbounds nuw i8, ptr %5, i64 80
  %80 = load i32, ptr %79, align 8, !tbaa !63
  %.not50 = icmp eq i32 %80, 2
  br i1 %.not50, label %83, label %81

81:                                               ; preds = %srt_stack_push.exit56
  tail call void (ptr, ptr, ...) @srt_print(ptr noundef nonnull %0, ptr noundef nonnull @.str.16, i32 noundef %80)
  %82 = getelementptr inbounds nuw i8, ptr %0, i64 1108
  store i32 1, ptr %82, align 4, !tbaa !45
  br label %83

83:                                               ; preds = %srt_stack_push.exit56, %81, %2
  ret void
}